; Function Attrs: mustprogress nofree norecurse nosync nounwind willreturn memory(read, inaccessiblemem: none) uwtable
define dso_local noundef zeroext i1 @_ZNK4llvm14FullDependence10isPeelLastEj(ptr nocapture noundef nonnull readonly align 8 dereferenceable(56) %0, i32 noundef %1) unnamed_addr #8 align 2 {
  %3 = getelementptr inbounds nuw i8, ptr %0, i64 48
  %4 = add i32 %1, -1
  %5 = zext i32 %4 to i64
  %6 = load ptr, ptr %3, align 8
  %7 = getelementptr inbounds %"struct.llvm::Dependence::DVEntry", ptr %6, i64 %5
  %8 = load i8, ptr %7, align 8
  %9 = and i8 %8, 32
  %10 = icmp ne i8 %9, 0
  ret i1 %10
}